; Function Attrs: nounwind uwtable
define dso_local i32 @data_list_for_each_const(ptr noundef %0, ptr noundef readonly captures(none) %1, ptr noundef %2) local_unnamed_addr #0 {
  %.not = icmp eq ptr %0, null
  br i1 %.not, label %7, label %4

4:                                                ; preds = %3
  %5 = getelementptr inbounds nuw i8, ptr %0, i64 4
  %6 = load i32, ptr %5, align 4
  %.not22 = icmp eq i32 %6, 65282
  br i1 %.not22, label %10, label %7

7:                                                ; preds = %4, %3
  %8 = ptrtoint ptr %0 to i64
  %9 = tail call i32 (ptr, ...) @error(ptr noundef nonnull @.str.32, ptr noundef nonnull @__func__.data_list_for_each_const, i64 noundef %8) #16
  br label %.loopexit

10:                                               ; preds = %4
  %11 = getelementptr inbounds nuw i8, ptr %0, i64 8
  %12 = load ptr, ptr %11, align 8
  %13 = getelementptr inbounds nuw i8, ptr %12, i64 16
  %14 = load ptr, ptr %13, align 8
  %.not2331 = icmp eq ptr %14, null
  br i1 %.not2331, label %.loopexit, label %.lr.ph

.lr.ph:                                           ; preds = %10, %.thread
  %.01733 = phi ptr [ %24, %.thread ], [ %14, %10 ]
  %.01832 = phi i32 [ %18, %.thread ], [ 0, %10 ]
  %15 = getelementptr inbounds nuw i8, ptr %.01733, i64 16
  %16 = load ptr, ptr %15, align 8
  %17 = tail call i32 %1(ptr noundef %16, ptr noundef %2) #16
  %18 = add nuw nsw i32 %.01832, 1
  switch i32 %17, label %22 [
    i32 1, label %.thread
    i32 2, label %19
    i32 4, label %20
    i32 3, label %.loopexit
  ]

19:                                               ; preds = %.lr.ph
  tail call void (ptr, ...) @fatal_abort(ptr noundef nonnull @.str.33, ptr noundef nonnull @__func__.data_list_for_each_const) #18
  unreachable

20:                                               ; preds = %.lr.ph
  %21 = xor i32 %.01832, -1
  br label %.loopexit

22:                                               ; preds = %.lr.ph
  tail call void (ptr, ...) @fatal_abort(ptr noundef nonnull @.str.34, ptr noundef nonnull @__func__.data_list_for_each_const) #18
  unreachable

.thread:                                          ; preds = %.lr.ph
  %23 = getelementptr inbounds nuw i8, ptr %.01733, i64 8
  %24 = load ptr, ptr %23, align 8
  %.not23 = icmp eq ptr %24, null
  br i1 %.not23, label %.loopexit, label %.lr.ph, !llvm.loop !13

.loopexit:                                        ; preds = %.lr.ph, %.thread, %20, %10, %7
  %.0 = phi i32 [ -1, %7 ], [ 0, %10 ], [ %21, %20 ], [ %18, %.thread ], [ %18, %.lr.ph ]
  ret i32 %.0
}